target datalayout = "e-m:e-p270:32:32-p271:32:32-p272:64:64-i64:64-i128:128-f80:128-n8:16:32:64-S128"
target triple = "x86_64-pc-linux-gnu"

%"struct.llvm::detail::PunnedPointer.342" = type { [8 x i8] }
%"class.clang::SourceLocation" = type { i32 }
%"class.clang::CXXCtorInitializer" = type <{ %"class.llvm::PointerUnion.549", ptr, %"class.clang::SourceLocation", %"class.clang::SourceLocation", %"class.clang::SourceLocation", i16, [2 x i8] }>
%"class.llvm::PointerUnion.549" = type { %"class.llvm::pointer_union_detail::PointerUnionMembers.550" }
%"class.llvm::pointer_union_detail::PointerUnionMembers.550" = type { %"class.llvm::pointer_union_detail::PointerUnionMembers.551" }
%"class.llvm::pointer_union_detail::PointerUnionMembers.551" = type { %"class.llvm::pointer_union_detail::PointerUnionMembers.552" }
%"class.llvm::pointer_union_detail::PointerUnionMembers.552" = type { %"class.llvm::pointer_union_detail::PointerUnionMembers.553" }
%"class.llvm::pointer_union_detail::PointerUnionMembers.553" = type { %"class.llvm::PointerIntPair.554" }
%"class.llvm::PointerIntPair.554" = type { %"struct.llvm::detail::PunnedPointer.342" }

; Function Attrs: mustprogress nounwind uwtable
define linkonce_odr hidden noundef ptr @_ZN4llvm20pointer_union_detail22PointerUnionUIntTraitsIJPN5clang14TypeSourceInfoEPNS2_9FieldDeclEPNS2_17IndirectFieldDeclEEE16getAsVoidPointerEPv(ptr noundef %0) #0 comdat align 2 {
  %2 = alloca ptr, align 8
  store ptr %0, ptr %2, align 8
  %3 = load ptr, ptr %2, align 8
  ret ptr %3
}

; Function Attrs: mustprogress nounwind uwtable
define linkonce_odr hidden noundef i64 @_ZN4llvm18PointerIntPairInfoIPvLj2ENS_20pointer_union_detail22PointerUnionUIntTraitsIJPN5clang14TypeSourceInfoEPNS4_9FieldDeclEPNS4_17IndirectFieldDeclEEEEE9updateIntEll(i64 noundef %0, i64 noundef %1) #0 comdat align 2 {
  %3 = alloca i64, align 8
  %4 = alloca i64, align 8
  %5 = alloca i64, align 8
  store i64 %0, ptr %3, align 8
  store i64 %1, ptr %4, align 8
  %6 = load i64, ptr %4, align 8
  store i64 %6, ptr %5, align 8
  %7 = load i64, ptr %3, align 8
  %8 = and i64 %7, -7
  %9 = load i64, ptr %5, align 8
  %10 = shl i64 %9, 1
  %11 = or i64 %8, %10
  ret i64 %11
}

; Function Attrs: mustprogress nounwind uwtable
define linkonce_odr hidden noundef i64 @_ZN4llvm18PointerIntPairInfoIPvLj2ENS_20pointer_union_detail22PointerUnionUIntTraitsIJPN5clang14TypeSourceInfoEPNS4_9FieldDeclEPNS4_17IndirectFieldDeclEEEEE13updatePointerElS1_(i64 noundef %0, ptr noundef %1) #0 comdat align 2 {
  %3 = alloca i64, align 8
  %4 = alloca ptr, align 8
  %5 = alloca i64, align 8
  store i64 %0, ptr %3, align 8
  store ptr %1, ptr %4, align 8
  %6 = load ptr, ptr %4, align 8
  %7 = call noundef ptr @_ZN4llvm20pointer_union_detail22PointerUnionUIntTraitsIJPN5clang14TypeSourceInfoEPNS2_9FieldDeclEPNS2_17IndirectFieldDeclEEE16getAsVoidPointerEPv(ptr noundef %6)
  %8 = ptrtoint ptr %7 to i64
  store i64 %8, ptr %5, align 8
  %9 = load i64, ptr %5, align 8
  %10 = load i64, ptr %3, align 8
  %11 = and i64 %10, 7
  %12 = or i64 %9, %11
  ret i64 %12
}

; Function Attrs: mustprogress nounwind uwtable
define linkonce_odr hidden noundef nonnull align 8 dereferenceable(8) ptr @_ZN4llvm6detail13PunnedPointerIPvEaSEl(ptr noundef nonnull align 8 dereferenceable(8) %0, i64 noundef %1) #0 comdat align 2 {
  %3 = alloca ptr, align 8
  %4 = alloca i64, align 8
  store ptr %0, ptr %3, align 8
  store i64 %1, ptr %4, align 8
  %5 = load ptr, ptr %3, align 8
  %6 = getelementptr inbounds nuw %"struct.llvm::detail::PunnedPointer.342", ptr %5, i32 0, i32 0
  %7 = getelementptr inbounds [8 x i8], ptr %6, i64 0, i64 0
  call void @llvm.memcpy.p0.p0.i64(ptr align 8 %7, ptr align 8 %4, i64 8, i1 false)
  ret ptr %5
}

; Function Attrs: mustprogress nounwind uwtable
define linkonce_odr hidden void @_ZNR4llvm14PointerIntPairIPvLj2EiNS_20pointer_union_detail22PointerUnionUIntTraitsIJPN5clang14TypeSourceInfoEPNS4_9FieldDeclEPNS4_17IndirectFieldDeclEEEENS_18PointerIntPairInfoIS1_Lj2ESB_EEE16setPointerAndIntES1_i(ptr noundef nonnull align 8 dereferenceable(8) %0, ptr noundef %1, i32 noundef %2) #0 comdat align 2 {
  %4 = alloca ptr, align 8
  %5 = alloca ptr, align 8
  %6 = alloca i32, align 4
  store ptr %0, ptr %4, align 8
  store ptr %1, ptr %5, align 8
  store i32 %2, ptr %6, align 4
  %7 = load ptr, ptr %4, align 8
  %8 = load ptr, ptr %5, align 8
  %9 = call noundef i64 @_ZN4llvm18PointerIntPairInfoIPvLj2ENS_20pointer_union_detail22PointerUnionUIntTraitsIJPN5clang14TypeSourceInfoEPNS4_9FieldDeclEPNS4_17IndirectFieldDeclEEEEE13updatePointerElS1_(i64 noundef 0, ptr noundef %8)
  %10 = load i32, ptr %6, align 4
  %11 = sext i32 %10 to i64
  %12 = call noundef i64 @_ZN4llvm18PointerIntPairInfoIPvLj2ENS_20pointer_union_detail22PointerUnionUIntTraitsIJPN5clang14TypeSourceInfoEPNS4_9FieldDeclEPNS4_17IndirectFieldDeclEEEEE9updateIntEll(i64 noundef %9, i64 noundef %11)
  %13 = getelementptr inbounds nuw %"class.llvm::PointerIntPair.554", ptr %7, i32 0, i32 0
  %14 = call noundef nonnull align 8 dereferenceable(8) ptr @_ZN4llvm6detail13PunnedPointerIPvEaSEl(ptr noundef nonnull align 8 dereferenceable(8) %13, i64 noundef %12)
  ret void
}

; Function Attrs: mustprogress nounwind uwtable
define linkonce_odr hidden void @_ZN4llvm6detail13PunnedPointerIPvEC2El(ptr noundef nonnull align 8 dereferenceable(8) %0, i64 noundef %1) unnamed_addr #0 comdat align 2 {
  %3 = alloca ptr, align 8
  %4 = alloca i64, align 8
  store ptr %0, ptr %3, align 8
  store i64 %1, ptr %4, align 8
  %5 = load ptr, ptr %3, align 8
  %6 = load i64, ptr %4, align 8
  %7 = call noundef nonnull align 8 dereferenceable(8) ptr @_ZN4llvm6detail13PunnedPointerIPvEaSEl(ptr noundef nonnull align 8 dereferenceable(8) %5, i64 noundef %6)
  ret void
}

; Function Attrs: mustprogress nounwind uwtable
define linkonce_odr hidden void @_ZN4llvm20pointer_union_detail19PointerUnionMembersINS_12PointerUnionIJPN5clang14TypeSourceInfoEPNS3_9FieldDeclEPNS3_17IndirectFieldDeclEEEENS_14PointerIntPairIPvLj2EiNS0_22PointerUnionUIntTraitsIJS5_S7_S9_EEENS_18PointerIntPairInfoISC_Lj2ESE_EEEELi3EJEEC2ESH_(ptr noundef nonnull align 8 dereferenceable(8) %0, i64 %1) unnamed_addr #0 comdat align 2 {
  %3 = alloca %"class.llvm::PointerIntPair.554", align 8
  %4 = alloca ptr, align 8
  %5 = getelementptr inbounds nuw %"class.llvm::PointerIntPair.554", ptr %3, i32 0, i32 0
  %6 = getelementptr inbounds nuw %"struct.llvm::detail::PunnedPointer.342", ptr %5, i32 0, i32 0
  store i64 %1, ptr %6, align 8
  store ptr %0, ptr %4, align 8
  %7 = load ptr, ptr %4, align 8
  %8 = getelementptr inbounds nuw %"class.llvm::pointer_union_detail::PointerUnionMembers.553", ptr %7, i32 0, i32 0
  call void @llvm.memcpy.p0.p0.i64(ptr align 8 %8, ptr align 8 %3, i64 8, i1 false)
  ret void
}

; Function Attrs: mustprogress nounwind uwtable
define linkonce_odr hidden void @_ZN4llvm14PointerIntPairIPvLj2EiNS_20pointer_union_detail22PointerUnionUIntTraitsIJPN5clang14TypeSourceInfoEPNS4_9FieldDeclEPNS4_17IndirectFieldDeclEEEENS_18PointerIntPairInfoIS1_Lj2ESB_EEEC2ES1_i(ptr noundef nonnull align 8 dereferenceable(8) %0, ptr noundef %1, i32 noundef %2) unnamed_addr #0 comdat align 2 {
  %4 = alloca ptr, align 8
  %5 = alloca ptr, align 8
  %6 = alloca i32, align 4
  store ptr %0, ptr %4, align 8
  store ptr %1, ptr %5, align 8
  store i32 %2, ptr %6, align 4
  %7 = load ptr, ptr %4, align 8
  %8 = getelementptr inbounds nuw %"class.llvm::PointerIntPair.554", ptr %7, i32 0, i32 0
  call void @_ZN4llvm6detail13PunnedPointerIPvEC2El(ptr noundef nonnull align 8 dereferenceable(8) %8, i64 noundef 0)
  %9 = load ptr, ptr %5, align 8
  %10 = load i32, ptr %6, align 4
  call void @_ZNR4llvm14PointerIntPairIPvLj2EiNS_20pointer_union_detail22PointerUnionUIntTraitsIJPN5clang14TypeSourceInfoEPNS4_9FieldDeclEPNS4_17IndirectFieldDeclEEEENS_18PointerIntPairInfoIS1_Lj2ESB_EEE16setPointerAndIntES1_i(ptr noundef nonnull align 8 dereferenceable(8) %7, ptr noundef %9, i32 noundef %10)
  ret void
}

; Function Attrs: mustprogress nounwind uwtable
define linkonce_odr hidden noundef ptr @_ZN4llvm21PointerLikeTypeTraitsIPN5clang17IndirectFieldDeclEE16getAsVoidPointerES3_(ptr noundef %0) #0 comdat align 2 {
  %2 = alloca ptr, align 8
  store ptr %0, ptr %2, align 8
  %3 = load ptr, ptr %2, align 8
  ret ptr %3
}

; Function Attrs: mustprogress nounwind uwtable
define linkonce_odr hidden void @_ZN4llvm20pointer_union_detail19PointerUnionMembersINS_12PointerUnionIJPN5clang14TypeSourceInfoEPNS3_9FieldDeclEPNS3_17IndirectFieldDeclEEEENS_14PointerIntPairIPvLj2EiNS0_22PointerUnionUIntTraitsIJS5_S7_S9_EEENS_18PointerIntPairInfoISC_Lj2ESE_EEEELi2EJS9_EEC2ES9_(ptr noundef nonnull align 8 dereferenceable(8) %0, ptr noundef %1) unnamed_addr #0 comdat align 2 {
  %3 = alloca ptr, align 8
  %4 = alloca ptr, align 8
  %5 = alloca %"class.llvm::PointerIntPair.554", align 8
  store ptr %0, ptr %3, align 8
  store ptr %1, ptr %4, align 8
  %6 = load ptr, ptr %3, align 8
  %7 = load ptr, ptr %4, align 8
  %8 = call noundef ptr @_ZN4llvm21PointerLikeTypeTraitsIPN5clang17IndirectFieldDeclEE16getAsVoidPointerES3_(ptr noundef %7)
  call void @_ZN4llvm14PointerIntPairIPvLj2EiNS_20pointer_union_detail22PointerUnionUIntTraitsIJPN5clang14TypeSourceInfoEPNS4_9FieldDeclEPNS4_17IndirectFieldDeclEEEENS_18PointerIntPairInfoIS1_Lj2ESB_EEEC2ES1_i(ptr noundef nonnull align 8 dereferenceable(8) %5, ptr noundef %8, i32 noundef 2)
  %9 = getelementptr inbounds nuw %"class.llvm::PointerIntPair.554", ptr %5, i32 0, i32 0
  %10 = getelementptr inbounds nuw %"struct.llvm::detail::PunnedPointer.342", ptr %9, i32 0, i32 0
  %11 = load i64, ptr %10, align 8
  call void @_ZN4llvm20pointer_union_detail19PointerUnionMembersINS_12PointerUnionIJPN5clang14TypeSourceInfoEPNS3_9FieldDeclEPNS3_17IndirectFieldDeclEEEENS_14PointerIntPairIPvLj2EiNS0_22PointerUnionUIntTraitsIJS5_S7_S9_EEENS_18PointerIntPairInfoISC_Lj2ESE_EEEELi3EJEEC2ESH_(ptr noundef nonnull align 8 dereferenceable(8) %6, i64 %11)
  ret void
}

; Function Attrs: mustprogress nounwind uwtable
define linkonce_odr hidden void @_ZN4llvm20pointer_union_detail19PointerUnionMembersINS_12PointerUnionIJPN5clang14TypeSourceInfoEPNS3_9FieldDeclEPNS3_17IndirectFieldDeclEEEENS_14PointerIntPairIPvLj2EiNS0_22PointerUnionUIntTraitsIJS5_S7_S9_EEENS_18PointerIntPairInfoISC_Lj2ESE_EEEELi1EJS7_S9_EECI2NS1_ISA_SH_Li2EJS9_EEEES9_(ptr noundef nonnull align 8 dereferenceable(8) %0, ptr noundef %1) unnamed_addr #0 comdat align 2 {
  %3 = alloca ptr, align 8
  %4 = alloca ptr, align 8
  store ptr %0, ptr %3, align 8
  store ptr %1, ptr %4, align 8
  %5 = load ptr, ptr %3, align 8
  %6 = load ptr, ptr %4, align 8
  call void @_ZN4llvm20pointer_union_detail19PointerUnionMembersINS_12PointerUnionIJPN5clang14TypeSourceInfoEPNS3_9FieldDeclEPNS3_17IndirectFieldDeclEEEENS_14PointerIntPairIPvLj2EiNS0_22PointerUnionUIntTraitsIJS5_S7_S9_EEENS_18PointerIntPairInfoISC_Lj2ESE_EEEELi2EJS9_EEC2ES9_(ptr noundef nonnull align 8 dereferenceable(8) %5, ptr noundef %6)
  ret void
}

; Function Attrs: mustprogress nounwind uwtable
define linkonce_odr hidden void @_ZN4llvm20pointer_union_detail19PointerUnionMembersINS_12PointerUnionIJPN5clang14TypeSourceInfoEPNS3_9FieldDeclEPNS3_17IndirectFieldDeclEEEENS_14PointerIntPairIPvLj2EiNS0_22PointerUnionUIntTraitsIJS5_S7_S9_EEENS_18PointerIntPairInfoISC_Lj2ESE_EEEELi0EJS5_S7_S9_EECI2NS1_ISA_SH_Li2EJS9_EEEES9_(ptr noundef nonnull align 8 dereferenceable(8) %0, ptr noundef %1) unnamed_addr #0 comdat align 2 {
  %3 = alloca ptr, align 8
  %4 = alloca ptr, align 8
  store ptr %0, ptr %3, align 8
  store ptr %1, ptr %4, align 8
  %5 = load ptr, ptr %3, align 8
  %6 = load ptr, ptr %4, align 8
  call void @_ZN4llvm20pointer_union_detail19PointerUnionMembersINS_12PointerUnionIJPN5clang14TypeSourceInfoEPNS3_9FieldDeclEPNS3_17IndirectFieldDeclEEEENS_14PointerIntPairIPvLj2EiNS0_22PointerUnionUIntTraitsIJS5_S7_S9_EEENS_18PointerIntPairInfoISC_Lj2ESE_EEEELi1EJS7_S9_EECI2NS1_ISA_SH_Li2EJS9_EEEES9_(ptr noundef nonnull align 8 dereferenceable(8) %5, ptr noundef %6)
  ret void
}

; Function Attrs: mustprogress nounwind uwtable
define linkonce_odr hidden void @_ZN4llvm12PointerUnionIJPN5clang14TypeSourceInfoEPNS1_9FieldDeclEPNS1_17IndirectFieldDeclEEECI2NS_20pointer_union_detail19PointerUnionMembersIS8_NS_14PointerIntPairIPvLj2EiNS9_22PointerUnionUIntTraitsIJS3_S5_S7_EEENS_18PointerIntPairInfoISC_Lj2ESE_EEEELi2EJS7_EEEES7_(ptr noundef nonnull align 8 dereferenceable(8) %0, ptr noundef %1) unnamed_addr #0 comdat align 2 {
  %3 = alloca ptr, align 8
  %4 = alloca ptr, align 8
  store ptr %0, ptr %3, align 8
  store ptr %1, ptr %4, align 8
  %5 = load ptr, ptr %3, align 8
  %6 = load ptr, ptr %4, align 8
  call void @_ZN4llvm20pointer_union_detail19PointerUnionMembersINS_12PointerUnionIJPN5clang14TypeSourceInfoEPNS3_9FieldDeclEPNS3_17IndirectFieldDeclEEEENS_14PointerIntPairIPvLj2EiNS0_22PointerUnionUIntTraitsIJS5_S7_S9_EEENS_18PointerIntPairInfoISC_Lj2ESE_EEEELi0EJS5_S7_S9_EECI2NS1_ISA_SH_Li2EJS9_EEEES9_(ptr noundef nonnull align 8 dereferenceable(8) %5, ptr noundef %6)
  ret void
}

; Function Attrs: mustprogress nounwind uwtable
define dso_local void @_ZN5clang18CXXCtorInitializerC2ERNS_10ASTContextEPNS_17IndirectFieldDeclENS_14SourceLocationES5_PNS_4ExprES5_(ptr noundef nonnull align 8 dereferenceable(32) %0, ptr noundef nonnull align 8 dereferenceable(23096) %1, ptr noundef %2, i32 %3, i32 %4, ptr noundef %5, i32 %6) unnamed_addr #0 align 2 {
  %8 = alloca %"class.clang::SourceLocation", align 4
  %9 = alloca %"class.clang::SourceLocation", align 4
  %10 = alloca %"class.clang::SourceLocation", align 4
  %11 = alloca ptr, align 8
  %12 = alloca ptr, align 8
  %13 = alloca ptr, align 8
  %14 = alloca ptr, align 8
  %15 = getelementptr inbounds nuw %"class.clang::SourceLocation", ptr %8, i32 0, i32 0
  store i32 %3, ptr %15, align 4
  %16 = getelementptr inbounds nuw %"class.clang::SourceLocation", ptr %9, i32 0, i32 0
  store i32 %4, ptr %16, align 4
  %17 = getelementptr inbounds nuw %"class.clang::SourceLocation", ptr %10, i32 0, i32 0
  store i32 %6, ptr %17, align 4
  store ptr %0, ptr %11, align 8
  store ptr %1, ptr %12, align 8
  store ptr %2, ptr %13, align 8
  store ptr %5, ptr %14, align 8
  %18 = load ptr, ptr %11, align 8
  %19 = getelementptr inbounds nuw %"class.clang::CXXCtorInitializer", ptr %18, i32 0, i32 0
  %20 = load ptr, ptr %13, align 8
  call void @_ZN4llvm12PointerUnionIJPN5clang14TypeSourceInfoEPNS1_9FieldDeclEPNS1_17IndirectFieldDeclEEECI2NS_20pointer_union_detail19PointerUnionMembersIS8_NS_14PointerIntPairIPvLj2EiNS9_22PointerUnionUIntTraitsIJS3_S5_S7_EEENS_18PointerIntPairInfoISC_Lj2ESE_EEEELi2EJS7_EEEES7_(ptr noundef nonnull align 8 dereferenceable(8) %19, ptr noundef %20)
  %21 = getelementptr inbounds nuw %"class.clang::CXXCtorInitializer", ptr %18, i32 0, i32 1
  %22 = load ptr, ptr %14, align 8
  store ptr %22, ptr %21, align 8
  %23 = getelementptr inbounds nuw %"class.clang::CXXCtorInitializer", ptr %18, i32 0, i32 2
  call void @llvm.memcpy.p0.p0.i64(ptr align 8 %23, ptr align 4 %8, i64 4, i1 false)
  %24 = getelementptr inbounds nuw %"class.clang::CXXCtorInitializer", ptr %18, i32 0, i32 3
  call void @llvm.memcpy.p0.p0.i64(ptr align 4 %24, ptr align 4 %9, i64 4, i1 false)
  %25 = getelementptr inbounds nuw %"class.clang::CXXCtorInitializer", ptr %18, i32 0, i32 4
  call void @llvm.memcpy.p0.p0.i64(ptr align 8 %25, ptr align 4 %10, i64 4, i1 false)
  %26 = getelementptr inbounds nuw %"class.clang::CXXCtorInitializer", ptr %18, i32 0, i32 5
  %27 = load i16, ptr %26, align 4
  %28 = and i16 %27, -2
  %29 = or i16 %28, 0
  store i16 %29, ptr %26, align 4
  %30 = getelementptr inbounds nuw %"class.clang::CXXCtorInitializer", ptr %18, i32 0, i32 5
  %31 = load i16, ptr %30, align 4
  %32 = and i16 %31, -3
  %33 = or i16 %32, 0
  store i16 %33, ptr %30, align 4
  %34 = getelementptr inbounds nuw %"class.clang::CXXCtorInitializer", ptr %18, i32 0, i32 5
  %35 = load i16, ptr %34, align 4
  %36 = and i16 %35, -5
  %37 = or i16 %36, 0
  store i16 %37, ptr %34, align 4
  %38 = getelementptr inbounds nuw %"class.clang::CXXCtorInitializer", ptr %18, i32 0, i32 5
  %39 = load i16, ptr %38, align 4
  %40 = and i16 %39, 7
  %41 = or i16 %40, 0
  store i16 %41, ptr %38, align 4
  ret void
}